target datalayout = "e-m:e-p270:32:32-p271:32:32-p272:64:64-i64:64-i128:128-f80:128-n8:16:32:64-S128"
target triple = "x86_64-unknown-linux-gnu"

%struct.TimersState = type { i64, i64, %struct.QemuSeqLock, %struct.QemuSpin, i16, i16, i64, i64, i64, i64, i64, ptr, ptr, ptr }
%struct.QemuSeqLock = type { i32 }
%struct.QemuSpin = type { i32 }
%struct.CPUState = type { %struct.DeviceState, ptr, i32, i32, ptr, i32, i8, i8, ptr, i8, i8, i8, i8, i8, i8, i8, i8, i32, i32, i32, i32, i64, i64, i64, [1 x %struct.__jmp_buf_tag], %struct.QemuMutex, %struct.anon, ptr, i32, ptr, ptr, ptr, ptr, i32, i32, %union.anon, %union.anon.0, %union.anon.1, ptr, ptr, i64, i32, ptr, ptr, ptr, i32, i64, i32, %struct.QemuLockCnt, [1 x i64], ptr, i32, i32, i32, i32, i32, ptr, i8, i8, i64, i8, i8, ptr, [8 x i8], [0 x i8], %struct.CPUNegativeOffsetState }
%struct.DeviceState = type { %struct.Object, ptr, ptr, i8, i8, i64, ptr, i32, i8, ptr, %struct.NamedGPIOListHead, %struct.NamedClockListHead, %struct.BusStateHead, i32, i32, i32, %struct.ResettableState, ptr, %struct.MemReentrancyGuard }
%struct.Object = type { ptr, ptr, ptr, i32, ptr }
%struct.NamedGPIOListHead = type { ptr }
%struct.NamedClockListHead = type { ptr }
%struct.BusStateHead = type { ptr }
%struct.ResettableState = type { i32, i8, i8 }
%struct.MemReentrancyGuard = type { i8 }
%struct.__jmp_buf_tag = type { [8 x i64], i32, %struct.__sigset_t }
%struct.__sigset_t = type { [16 x i64] }
%struct.QemuMutex = type { %union.pthread_mutex_t, i8 }
%union.pthread_mutex_t = type { %struct.__pthread_mutex_s }
%struct.__pthread_mutex_s = type { i32, i32, i32, i32, i32, i16, i16, %struct.__pthread_internal_list }
%struct.__pthread_internal_list = type { ptr, ptr }
%struct.anon = type { ptr, ptr }
%union.anon = type { %struct.QTailQLink }
%struct.QTailQLink = type { ptr, ptr }
%union.anon.0 = type { %struct.QTailQLink }
%union.anon.1 = type { %struct.QTailQLink }
%struct.QemuLockCnt = type { i32 }
%struct.CPUNegativeOffsetState = type { %struct.CPUTLB, %union.IcountDecr, i8, [11 x i8] }
%struct.CPUTLB = type { %struct.CPUTLBCommon, [16 x %struct.CPUTLBDesc], [16 x %struct.CPUTLBDescFast] }
%struct.CPUTLBCommon = type { %struct.QemuSpin, i16, i64, i64, i64 }
%struct.CPUTLBDesc = type { i64, i64, i64, i64, i64, i64, [8 x %union.CPUTLBEntry], [8 x %struct.CPUTLBEntryFull], ptr }
%union.CPUTLBEntry = type { %struct.anon.2 }
%struct.anon.2 = type { i64, i64, i64, i64 }
%struct.CPUTLBEntryFull = type { i64, i64, %struct.MemTxAttrs, i8, i8, [3 x i8], %union.anon.3 }
%struct.MemTxAttrs = type { i32 }
%union.anon.3 = type { %struct.anon.4 }
%struct.anon.4 = type { i8, i8, i8 }
%struct.CPUTLBDescFast = type { i64, ptr }
%union.IcountDecr = type { i32 }
%struct.anon.5 = type { i16, i16 }

@timers_state = external global %struct.TimersState, align 8
@.str = private unnamed_addr constant [34 x i8] c"../qemu/accel/tcg/icount-common.c\00", align 1
@__func__.icount_to_ns = private unnamed_addr constant [13 x i8] c"icount_to_ns\00", align 1
@current_cpu = external thread_local global ptr, align 8
@.str.12 = private unnamed_addr constant [101 x i8] c"/home/dtcxzyw/WorkSpace/Projects/compilers/llvm-opt-benchmark/bench/qemu/qemu/include/qemu/seqlock.h\00", align 1
@__func__.seqlock_read_begin = private unnamed_addr constant [19 x i8] c"seqlock_read_begin\00", align 1
@.str.14 = private unnamed_addr constant [16 x i8] c"Bad icount read\00", align 1
@__func__.seqlock_read_retry = private unnamed_addr constant [19 x i8] c"seqlock_read_retry\00", align 1

; Function Attrs: nounwind sspstrong uwtable
define internal i64 @icount_get_executed(ptr noundef %cpu) #0 {
entry:
  %cpu.addr = alloca ptr, align 8
  store ptr %cpu, ptr %cpu.addr, align 8
  %0 = load ptr, ptr %cpu.addr, align 8
  %icount_budget = getelementptr inbounds %struct.CPUState, ptr %0, i32 0, i32 21
  %1 = load i64, ptr %icount_budget, align 16
  %2 = load ptr, ptr %cpu.addr, align 8
  %neg = getelementptr inbounds %struct.CPUState, ptr %2, i32 0, i32 65
  %icount_decr = getelementptr inbounds %struct.CPUNegativeOffsetState, ptr %neg, i32 0, i32 1
  %low = getelementptr inbounds %struct.anon.5, ptr %icount_decr, i32 0, i32 0
  %3 = load i16, ptr %low, align 16
  %conv = zext i16 %3 to i64
  %4 = load ptr, ptr %cpu.addr, align 8
  %icount_extra = getelementptr inbounds %struct.CPUState, ptr %4, i32 0, i32 22
  %5 = load i64, ptr %icount_extra, align 8
  %add = add i64 %conv, %5
  %sub = sub i64 %1, %add
  ret i64 %sub
}

; Function Attrs: nounwind sspstrong uwtable
define internal void @icount_update_locked(ptr noundef %cpu) #0 {
entry:
  %cpu.addr = alloca ptr, align 8
  %executed = alloca i64, align 8
  %.atomictmp = alloca i64, align 8
  store ptr %cpu, ptr %cpu.addr, align 8
  %0 = load ptr, ptr %cpu.addr, align 8
  %call = call i64 @icount_get_executed(ptr noundef %0)
  store i64 %call, ptr %executed, align 8
  %1 = load i64, ptr %executed, align 8
  %2 = load ptr, ptr %cpu.addr, align 8
  %icount_budget = getelementptr inbounds %struct.CPUState, ptr %2, i32 0, i32 21
  %3 = load i64, ptr %icount_budget, align 16
  %sub = sub i64 %3, %1
  store i64 %sub, ptr %icount_budget, align 16
  %4 = getelementptr inbounds %struct.TimersState, ptr @timers_state, i32 0, i32 10
  %5 = load i64, ptr %4, align 8
  %6 = load i64, ptr %executed, align 8
  %add = add i64 %5, %6
  store i64 %add, ptr %.atomictmp, align 8
  %7 = load i64, ptr %.atomictmp, align 8
  %8 = getelementptr inbounds %struct.TimersState, ptr @timers_state, i32 0, i32 10
  store atomic i64 %7, ptr %8 monotonic, align 8
  ret void
}

; Function Attrs: nounwind sspstrong uwtable
define dso_local i64 @icount_to_ns(i64 noundef %icount) #0 {
entry:
  %icount.addr = alloca i64, align 8
  %tmp = alloca i16, align 2
  %atomic-temp = alloca i16, align 2
  store i64 %icount, ptr %icount.addr, align 8
  %0 = load i64, ptr %icount.addr, align 8
  br label %while.cond

while.cond:                                       ; preds = %do.end, %entry
  br i1 false, label %while.body, label %while.end

while.body:                                       ; preds = %while.cond
  br label %do.body

do.body:                                          ; preds = %while.body
  call void @g_assertion_message_expr(ptr noundef null, ptr noundef @.str, i32 noundef 160, ptr noundef @__func__.icount_to_ns, ptr noundef null) #7
  unreachable

do.end:                                           ; No predecessors!
  br label %while.cond

while.end:                                        ; preds = %while.cond
  %1 = getelementptr inbounds %struct.TimersState, ptr @timers_state, i32 0, i32 5
  %2 = load atomic i16, ptr %1 monotonic, align 2
  store i16 %2, ptr %atomic-temp, align 2
  %3 = load i16, ptr %atomic-temp, align 2
  store i16 %3, ptr %tmp, align 2
  %4 = load i16, ptr %tmp, align 2
  %conv = sext i16 %4 to i32
  %sh_prom = zext i32 %conv to i64
  %shl = shl i64 %0, %sh_prom
  ret i64 %shl
}

; Function Attrs: nounwind sspstrong uwtable
define internal i64 @icount_get_raw_locked() #0 {
entry:
  %cpu = alloca ptr, align 8
  %atomic-temp = alloca i64, align 8
  %0 = call align 8 ptr @llvm.threadlocal.address.p0(ptr align 8 @current_cpu)
  %1 = load ptr, ptr %0, align 8
  store ptr %1, ptr %cpu, align 8
  %2 = load ptr, ptr %cpu, align 8
  %tobool = icmp ne ptr %2, null
  br i1 %tobool, label %land.lhs.true, label %if.end4

land.lhs.true:                                    ; preds = %entry
  %3 = load ptr, ptr %cpu, align 8
  %running = getelementptr inbounds %struct.CPUState, ptr %3, i32 0, i32 6
  %4 = load i8, ptr %running, align 4
  %tobool1 = trunc i8 %4 to i1
  br i1 %tobool1, label %if.then, label %if.end4

if.then:                                          ; preds = %land.lhs.true
  %5 = load ptr, ptr %cpu, align 8
  %neg = getelementptr inbounds %struct.CPUState, ptr %5, i32 0, i32 65
  %can_do_io = getelementptr inbounds %struct.CPUNegativeOffsetState, ptr %neg, i32 0, i32 2
  %6 = load i8, ptr %can_do_io, align 4
  %tobool2 = trunc i8 %6 to i1
  br i1 %tobool2, label %if.end, label %if.then3

if.then3:                                         ; preds = %if.then
  call void (ptr, ...) @error_report(ptr noundef @.str.14)
  call void @exit(i32 noundef 1) #9
  unreachable

if.end:                                           ; preds = %if.then
  %7 = load ptr, ptr %cpu, align 8
  call void @icount_update_locked(ptr noundef %7)
  br label %if.end4

if.end4:                                          ; preds = %if.end, %land.lhs.true, %entry
  %8 = getelementptr inbounds %struct.TimersState, ptr @timers_state, i32 0, i32 10
  %9 = load atomic i64, ptr %8 monotonic, align 8
  store i64 %9, ptr %atomic-temp, align 8
  %10 = load i64, ptr %atomic-temp, align 8
  ret i64 %10
}

; Function Attrs: nounwind sspstrong uwtable
define internal i32 @seqlock_read_retry(ptr noundef %sl, i32 noundef %start) #0 {
entry:
  %sl.addr = alloca ptr, align 8
  %start.addr = alloca i32, align 4
  %tmp = alloca i32, align 4
  %atomic-temp = alloca i32, align 4
  store ptr %sl, ptr %sl.addr, align 8
  store i32 %start, ptr %start.addr, align 4
  call void asm sideeffect "", "~{memory},~{dirflag},~{fpsr},~{flags}"() #8, !srcloc !11
  fence acquire
  br label %while.cond

while.cond:                                       ; preds = %do.end, %entry
  br i1 false, label %while.body, label %while.end

while.body:                                       ; preds = %while.cond
  br label %do.body

do.body:                                          ; preds = %while.body
  call void @g_assertion_message_expr(ptr noundef null, ptr noundef @.str.12, i32 noundef 82, ptr noundef @__func__.seqlock_read_retry, ptr noundef null) #7
  unreachable

do.end:                                           ; No predecessors!
  br label %while.cond

while.end:                                        ; preds = %while.cond
  %0 = load ptr, ptr %sl.addr, align 8
  %sequence = getelementptr inbounds %struct.QemuSeqLock, ptr %0, i32 0, i32 0
  %1 = load atomic i32, ptr %sequence monotonic, align 4
  store i32 %1, ptr %atomic-temp, align 4
  %2 = load i32, ptr %atomic-temp, align 4
  store i32 %2, ptr %tmp, align 4
  %3 = load i32, ptr %tmp, align 4
  %4 = load i32, ptr %start.addr, align 4
  %cmp = icmp ne i32 %3, %4
  %lnot = xor i1 %cmp, true
  %lnot1 = xor i1 %lnot, true
  %lnot.ext = zext i1 %lnot1 to i32
  %conv = sext i32 %lnot.ext to i64
  %conv2 = trunc i64 %conv to i32
  ret i32 %conv2
}

; Function Attrs: nounwind sspstrong uwtable
define internal i64 @icount_get_locked() #0 {
entry:
  %icount = alloca i64, align 8
  %atomic-temp = alloca i64, align 8
  %call = call i64 @icount_get_raw_locked()
  store i64 %call, ptr %icount, align 8
  %0 = getelementptr inbounds %struct.TimersState, ptr @timers_state, i32 0, i32 7
  %1 = load atomic i64, ptr %0 monotonic, align 8
  store i64 %1, ptr %atomic-temp, align 8
  %2 = load i64, ptr %atomic-temp, align 8
  %3 = load i64, ptr %icount, align 8
  %call1 = call i64 @icount_to_ns(i64 noundef %3)
  %add = add i64 %2, %call1
  ret i64 %add
}

; Function Attrs: nounwind sspstrong uwtable
define internal i32 @seqlock_read_begin(ptr noundef %sl) #0 {
entry:
  %sl.addr = alloca ptr, align 8
  %ret = alloca i32, align 4
  %tmp = alloca i32, align 4
  %atomic-temp = alloca i32, align 4
  store ptr %sl, ptr %sl.addr, align 8
  br label %while.cond

while.cond:                                       ; preds = %do.end, %entry
  br i1 false, label %while.body, label %while.end

while.body:                                       ; preds = %while.cond
  br label %do.body

do.body:                                          ; preds = %while.body
  call void @g_assertion_message_expr(ptr noundef null, ptr noundef @.str.12, i32 noundef 71, ptr noundef @__func__.seqlock_read_begin, ptr noundef null) #7
  unreachable

do.end:                                           ; No predecessors!
  br label %while.cond

while.end:                                        ; preds = %while.cond
  %0 = load ptr, ptr %sl.addr, align 8
  %sequence = getelementptr inbounds %struct.QemuSeqLock, ptr %0, i32 0, i32 0
  %1 = load atomic i32, ptr %sequence monotonic, align 4
  store i32 %1, ptr %atomic-temp, align 4
  %2 = load i32, ptr %atomic-temp, align 4
  store i32 %2, ptr %tmp, align 4
  %3 = load i32, ptr %tmp, align 4
  store i32 %3, ptr %ret, align 4
  call void asm sideeffect "", "~{memory},~{dirflag},~{fpsr},~{flags}"() #8, !srcloc !10
  fence acquire
  %4 = load i32, ptr %ret, align 4
  %and = and i32 %4, -2
  ret i32 %and
}

; Function Attrs: nounwind sspstrong uwtable
define dso_local i64 @icount_get() #0 {
entry:
  %icount = alloca i64, align 8
  %start = alloca i32, align 4
  br label %do.body

do.body:                                          ; preds = %do.cond, %entry
  %0 = getelementptr inbounds %struct.TimersState, ptr @timers_state, i32 0, i32 2
  %call = call i32 @seqlock_read_begin(ptr noundef %0)
  store i32 %call, ptr %start, align 4
  %call1 = call i64 @icount_get_locked()
  store i64 %call1, ptr %icount, align 8
  br label %do.cond

do.cond:                                          ; preds = %do.body
  %1 = load i32, ptr %start, align 4
  %2 = getelementptr inbounds %struct.TimersState, ptr @timers_state, i32 0, i32 2
  %call2 = call i32 @seqlock_read_retry(ptr noundef %2, i32 noundef %1)
  %tobool = icmp ne i32 %call2, 0
  br i1 %tobool, label %do.body, label %do.end, !llvm.loop !12

do.end:                                           ; preds = %do.cond
  %3 = load i64, ptr %icount, align 8
  ret i64 %3
}